target datalayout = "e-m:e-p270:32:32-p271:32:32-p272:64:64-i64:64-i128:128-f80:128-n8:16:32:64-S128"
target triple = "x86_64-pc-linux-gnu"

%struct._zend_stack = type { i32, i32, i32, ptr }
%struct._zend_array = type { %struct._zend_refcounted_h, %union.anon.4, i32, %union.anon.6, i32, i32, i32, i32, i64, ptr }
%struct._zend_refcounted_h = type { i32, %union.anon.3 }
%union.anon.3 = type { i32 }
%union.anon.4 = type { i32 }
%union.anon.6 = type { ptr }
%struct._zend_compiler_globals = type { %struct._zend_stack, ptr, ptr, i32, ptr, ptr, ptr, ptr, i8, i8, i8, i8, i8, %struct._zend_llist, ptr, i8, i8, i8, i8, ptr, i32, i32, %struct._zend_oparray_context, %struct._zend_file_context, ptr, %struct._zend_array, ptr, i64, i8, i8, i8, ptr, ptr, %struct._zend_stack, ptr, i32, ptr, ptr, i64, i64, ptr, ptr, ptr, ptr, i32, ptr, i32, %struct._zend_stack }
%struct._zend_llist = type { ptr, ptr, i64, i64, ptr, i8, ptr }
%struct._zend_oparray_context = type { ptr, ptr, i32, i32, i32, i32, i32, i32, i32, ptr, ptr, ptr, i32, i8 }
%struct._zend_file_context = type { %struct._zend_declarables, ptr, i8, i8, ptr, ptr, ptr, %struct._zend_array }
%struct._zend_declarables = type { i64 }

@compiler_globals = external global %struct._zend_compiler_globals, align 8
@.str.177 = private unnamed_addr constant [5 x i8] c"exit\00", align 1
@.str.178 = private unnamed_addr constant [4 x i8] c"die\00", align 1
@.str.179 = private unnamed_addr constant [29 x i8] c"Cannot disable function %s()\00", align 1

; Function Attrs: nounwind uwtable
define internal void @zend_disable_function(ptr noundef %0, i64 noundef %1) #0 {
  %3 = alloca ptr, align 8
  %4 = alloca i64, align 8
  store ptr %0, ptr %3, align 8, !tbaa !47
  store i64 %1, ptr %4, align 8, !tbaa !85
  %5 = load i64, ptr %4, align 8, !tbaa !85
  %6 = icmp eq i64 %5, 4
  br i1 %6, label %7, label %11

7:                                                ; preds = %2
  %8 = load ptr, ptr %3, align 8, !tbaa !47
  %9 = call i32 @memcmp(ptr noundef %8, ptr noundef @.str.177, i64 noundef 4) #22
  %10 = icmp ne i32 %9, 0
  br i1 %10, label %11, label %21

11:                                               ; preds = %7, %2
  %12 = load i64, ptr %4, align 8, !tbaa !85
  %13 = icmp eq i64 %12, 3
  br i1 %13, label %14, label %19

14:                                               ; preds = %11
  %15 = load ptr, ptr %3, align 8, !tbaa !47
  %16 = call i32 @memcmp(ptr noundef %15, ptr noundef @.str.178, i64 noundef 3) #22
  %17 = icmp ne i32 %16, 0
  %18 = xor i1 %17, true
  br label %19

19:                                               ; preds = %14, %11
  %20 = phi i1 [ false, %11 ], [ %18, %14 ]
  br label %21

21:                                               ; preds = %19, %7
  %22 = phi i1 [ true, %7 ], [ %20, %19 ]
  %23 = xor i1 %22, true
  %24 = xor i1 %23, true
  %25 = zext i1 %24 to i32
  %26 = sext i32 %25 to i64
  %27 = call i64 @llvm.expect.i64(i64 %26, i64 0)
  %28 = icmp ne i64 %27, 0
  br i1 %28, label %29, label %31

29:                                               ; preds = %21
  %30 = load ptr, ptr %3, align 8, !tbaa !47
  call void (i32, ptr, ...) @zend_error(i32 noundef 2, ptr noundef @.str.179, ptr noundef %30)
  br label %36

31:                                               ; preds = %21
  %32 = load ptr, ptr getelementptr inbounds nuw (%struct._zend_compiler_globals, ptr @compiler_globals, i32 0, i32 5), align 8, !tbaa !205
  %33 = load ptr, ptr %3, align 8, !tbaa !47
  %34 = load i64, ptr %4, align 8, !tbaa !85
  %35 = call i32 @zend_hash_str_del(ptr noundef %32, ptr noundef %33, i64 noundef %34)
  br label %36

36:                                               ; preds = %31, %29
  ret void
}

; Function Attrs: nounwind uwtable
define dso_local void @zend_disable_functions(ptr noundef %0) #0 {
  %2 = alloca ptr, align 8
  %3 = alloca ptr, align 8
  %4 = alloca ptr, align 8
  store ptr %0, ptr %2, align 8, !tbaa !47
  %5 = load ptr, ptr %2, align 8, !tbaa !47
  %6 = icmp ne ptr %5, null
  br i1 %6, label %7, label %11

7:                                                ; preds = %1
  %8 = load ptr, ptr %2, align 8, !tbaa !47
  %9 = load i8, ptr %8, align 1, !tbaa !44
  %10 = icmp ne i8 %9, 0
  br i1 %10, label %12, label %11

11:                                               ; preds = %7, %1
  br label %54

12:                                               ; preds = %7
  call void @llvm.lifetime.start.p0(i64 8, ptr %3) #21
  store ptr null, ptr %3, align 8, !tbaa !47
  call void @llvm.lifetime.start.p0(i64 8, ptr %4) #21
  %13 = load ptr, ptr %2, align 8, !tbaa !47
  store ptr %13, ptr %4, align 8, !tbaa !47
  br label %14

14:                                               ; preds = %39, %12
  %15 = load ptr, ptr %4, align 8, !tbaa !47
  %16 = load i8, ptr %15, align 1, !tbaa !44
  %17 = icmp ne i8 %16, 0
  br i1 %17, label %18, label %42

18:                                               ; preds = %14
  %19 = load ptr, ptr %4, align 8, !tbaa !47
  %20 = load i8, ptr %19, align 1, !tbaa !44
  %21 = sext i8 %20 to i32
  switch i32 %21, label %33 [
    i32 32, label %22
    i32 44, label %22
  ]

22:                                               ; preds = %18, %18
  %23 = load ptr, ptr %3, align 8, !tbaa !47
  %24 = icmp ne ptr %23, null
  br i1 %24, label %25, label %32

25:                                               ; preds = %22
  %26 = load ptr, ptr %3, align 8, !tbaa !47
  %27 = load ptr, ptr %4, align 8, !tbaa !47
  %28 = load ptr, ptr %3, align 8, !tbaa !47
  %29 = ptrtoint ptr %27 to i64
  %30 = ptrtoint ptr %28 to i64
  %31 = sub i64 %29, %30
  call void @zend_disable_function(ptr noundef %26, i64 noundef %31)
  store ptr null, ptr %3, align 8, !tbaa !47
  br label %32

32:                                               ; preds = %25, %22
  br label %39

33:                                               ; preds = %18
  %34 = load ptr, ptr %3, align 8, !tbaa !47
  %35 = icmp ne ptr %34, null
  br i1 %35, label %38, label %36

36:                                               ; preds = %33
  %37 = load ptr, ptr %4, align 8, !tbaa !47
  store ptr %37, ptr %3, align 8, !tbaa !47
  br label %38

38:                                               ; preds = %36, %33
  br label %39

39:                                               ; preds = %38, %32
  %40 = load ptr, ptr %4, align 8, !tbaa !47
  %41 = getelementptr inbounds nuw i8, ptr %40, i32 1
  store ptr %41, ptr %4, align 8, !tbaa !47
  br label %14

42:                                               ; preds = %14
  %43 = load ptr, ptr %3, align 8, !tbaa !47
  %44 = icmp ne ptr %43, null
  br i1 %44, label %45, label %52

45:                                               ; preds = %42
  %46 = load ptr, ptr %3, align 8, !tbaa !47
  %47 = load ptr, ptr %4, align 8, !tbaa !47
  %48 = load ptr, ptr %3, align 8, !tbaa !47
  %49 = ptrtoint ptr %47 to i64
  %50 = ptrtoint ptr %48 to i64
  %51 = sub i64 %49, %50
  call void @zend_disable_function(ptr noundef %46, i64 noundef %51)
  br label %52

52:                                               ; preds = %45, %42
  %53 = load ptr, ptr getelementptr inbounds nuw (%struct._zend_compiler_globals, ptr @compiler_globals, i32 0, i32 5), align 8, !tbaa !205
  call void @zend_hash_rehash(ptr noundef %53)
  call void @llvm.lifetime.end.p0(i64 8, ptr %4) #21
  call void @llvm.lifetime.end.p0(i64 8, ptr %3) #21
  br label %54

54:                                               ; preds = %52, %11
  ret void
}