; Function Attrs: nounwind uwtable
define dso_local void @zend_disable_functions(ptr noundef %0) local_unnamed_addr #2 {
  %.not = icmp eq ptr %0, null
  br i1 %.not, label %26, label %2

2:                                                ; preds = %1
  %3 = load i8, ptr %0, align 1, !tbaa !42
  %.not19 = icmp eq i8 %3, 0
  br i1 %.not19, label %26, label %.preheader

.preheader:                                       ; preds = %2, %zend_disable_function.exit
  %4 = phi i8 [ %.pr, %zend_disable_function.exit ], [ %3, %2 ]
  %.016 = phi ptr [ %.1, %zend_disable_function.exit ], [ null, %2 ]
  %.0 = phi ptr [ %15, %zend_disable_function.exit ], [ %0, %2 ]
  switch i8 %4, label %14 [
    i8 0, label %16
    i8 32, label %5
    i8 44, label %5
  ]

5:                                                ; preds = %.preheader, %.preheader
  %.not22 = icmp eq ptr %.016, null
  br i1 %.not22, label %zend_disable_function.exit, label %6

6:                                                ; preds = %5
  %7 = ptrtoint ptr %.0 to i64
  %8 = ptrtoint ptr %.016 to i64
  %9 = sub i64 %7, %8
  switch i64 %9, label %.critedge9.i [
    i64 4, label %10
    i64 3, label %11
  ]

10:                                               ; preds = %6
  %bcmp.i = tail call i32 @bcmp(ptr noundef nonnull dereferenceable(4) %.016, ptr noundef nonnull dereferenceable(4) @.str.177, i64 4)
  %.not.i = icmp eq i32 %bcmp.i, 0
  br i1 %.not.i, label %.critedge.i, label %.critedge9.i, !prof !46

11:                                               ; preds = %6
  %bcmp6.i = tail call i32 @bcmp(ptr noundef nonnull dereferenceable(3) %.016, ptr noundef nonnull dereferenceable(3) @.str.178, i64 3)
  %.not7.i = icmp eq i32 %bcmp6.i, 0
  br i1 %.not7.i, label %.critedge.i, label %.critedge9.i, !prof !46

.critedge.i:                                      ; preds = %11, %10
  tail call void (i32, ptr, ...) @zend_error(i32 noundef 2, ptr noundef nonnull @.str.179, ptr noundef nonnull %.016) #34
  br label %zend_disable_function.exit

.critedge9.i:                                     ; preds = %11, %10, %6
  %12 = load ptr, ptr getelementptr inbounds nuw (i8, ptr @compiler_globals, i64 56), align 8, !tbaa !269
  %13 = tail call i32 @zend_hash_str_del(ptr noundef %12, ptr noundef nonnull %.016, i64 noundef %9) #34
  br label %zend_disable_function.exit

14:                                               ; preds = %.preheader
  %.not23 = icmp eq ptr %.016, null
  %spec.select = select i1 %.not23, ptr %.0, ptr %.016
  br label %zend_disable_function.exit

zend_disable_function.exit:                       ; preds = %.critedge9.i, %.critedge.i, %14, %5
  %.1 = phi ptr [ null, %5 ], [ %spec.select, %14 ], [ null, %.critedge.i ], [ null, %.critedge9.i ]
  %15 = getelementptr inbounds nuw i8, ptr %.0, i64 1
  %.pr = load i8, ptr %15, align 1, !tbaa !42
  br label %.preheader

16:                                               ; preds = %.preheader
  %.not21 = icmp eq ptr %.016, null
  br i1 %.not21, label %zend_disable_function.exit30, label %17

17:                                               ; preds = %16
  %18 = ptrtoint ptr %.0 to i64
  %19 = ptrtoint ptr %.016 to i64
  %20 = sub i64 %18, %19
  switch i64 %20, label %.critedge9.i26 [
    i64 4, label %21
    i64 3, label %22
  ]

21:                                               ; preds = %17
  %bcmp.i28 = tail call i32 @bcmp(ptr noundef nonnull dereferenceable(4) %.016, ptr noundef nonnull dereferenceable(4) @.str.177, i64 4)
  %.not.i29 = icmp eq i32 %bcmp.i28, 0
  br i1 %.not.i29, label %.critedge.i27, label %.critedge9.i26, !prof !46

22:                                               ; preds = %17
  %bcmp6.i24 = tail call i32 @bcmp(ptr noundef nonnull dereferenceable(3) %.016, ptr noundef nonnull dereferenceable(3) @.str.178, i64 3)
  %.not7.i25 = icmp eq i32 %bcmp6.i24, 0
  br i1 %.not7.i25, label %.critedge.i27, label %.critedge9.i26, !prof !46

.critedge.i27:                                    ; preds = %22, %21
  tail call void (i32, ptr, ...) @zend_error(i32 noundef 2, ptr noundef nonnull @.str.179, ptr noundef nonnull %.016) #34
  br label %zend_disable_function.exit30

.critedge9.i26:                                   ; preds = %22, %21, %17
  %23 = load ptr, ptr getelementptr inbounds nuw (i8, ptr @compiler_globals, i64 56), align 8, !tbaa !269
  %24 = tail call i32 @zend_hash_str_del(ptr noundef %23, ptr noundef nonnull %.016, i64 noundef %20) #34
  br label %zend_disable_function.exit30

zend_disable_function.exit30:                     ; preds = %.critedge9.i26, %.critedge.i27, %16
  %25 = load ptr, ptr getelementptr inbounds nuw (i8, ptr @compiler_globals, i64 56), align 8, !tbaa !269
  tail call void @zend_hash_rehash(ptr noundef %25) #34
  br label %26

26:                                               ; preds = %1, %2, %zend_disable_function.exit30
  ret void
}